target datalayout = "e-m:e-p270:32:32-p271:32:32-p272:64:64-i64:64-i128:128-f80:128-n8:16:32:64-S128"
target triple = "x86_64-pc-linux-gnu"

%"class.facebook::yoga::Node" = type { i8, ptr, ptr, ptr, ptr, %"class.facebook::yoga::Style", %"struct.facebook::yoga::LayoutResults", i64, i64, ptr, %"class.std::vector", ptr, %"struct.std::array.8" }
%"class.facebook::yoga::Style" = type { i32, %"class.facebook::yoga::StyleValueHandle", %"class.facebook::yoga::StyleValueHandle", %"class.facebook::yoga::StyleValueHandle", %"class.facebook::yoga::StyleValueHandle", %"struct.std::array", %"struct.std::array", %"struct.std::array", %"struct.std::array", %"struct.std::array.0", %"struct.std::array.1", %"struct.std::array.1", %"struct.std::array.1", %"class.facebook::yoga::StyleValueHandle", %"class.facebook::yoga::StyleValuePool" }
%"struct.std::array" = type { [9 x %"class.facebook::yoga::StyleValueHandle"] }
%"struct.std::array.0" = type { [3 x %"class.facebook::yoga::StyleValueHandle"] }
%"struct.std::array.1" = type { [2 x %"class.facebook::yoga::StyleValueHandle"] }
%"class.facebook::yoga::StyleValueHandle" = type { i16 }
%"class.facebook::yoga::StyleValuePool" = type { %"class.facebook::yoga::SmallValueBuffer" }
%"class.facebook::yoga::SmallValueBuffer" = type { i16, %"struct.std::array.2", %"class.std::bitset", %"class.std::unique_ptr" }
%"struct.std::array.2" = type { [4 x i32] }
%"class.std::bitset" = type { %"struct.std::_Base_bitset" }
%"struct.std::_Base_bitset" = type { i64 }
%"class.std::unique_ptr" = type { %"struct.std::__uniq_ptr_data" }
%"struct.std::__uniq_ptr_data" = type { %"class.std::__uniq_ptr_impl" }
%"class.std::__uniq_ptr_impl" = type { %"class.std::tuple" }
%"class.std::tuple" = type { %"struct.std::_Tuple_impl" }
%"struct.std::_Tuple_impl" = type { %"struct.std::_Head_base.4" }
%"struct.std::_Head_base.4" = type { ptr }
%"struct.facebook::yoga::LayoutResults" = type { i32, %"struct.facebook::yoga::FloatOptional", i32, i32, i8, i32, %"struct.std::array.5", %"struct.facebook::yoga::CachedMeasurement", i8, %"struct.std::array.6", %"struct.std::array.6", %"struct.std::array.7", %"struct.std::array.7", %"struct.std::array.7", %"struct.std::array.7" }
%"struct.facebook::yoga::FloatOptional" = type { float }
%"struct.std::array.5" = type { [8 x %"struct.facebook::yoga::CachedMeasurement"] }
%"struct.facebook::yoga::CachedMeasurement" = type { float, float, i32, i32, float, float }
%"struct.std::array.6" = type { [2 x float] }
%"struct.std::array.7" = type { [4 x float] }
%"class.std::vector" = type { %"struct.std::_Vector_base" }
%"struct.std::_Vector_base" = type { %"struct.std::_Vector_base<facebook::yoga::Node *, std::allocator<facebook::yoga::Node *>>::_Vector_impl" }
%"struct.std::_Vector_base<facebook::yoga::Node *, std::allocator<facebook::yoga::Node *>>::_Vector_impl" = type { %"struct.std::_Vector_base<facebook::yoga::Node *, std::allocator<facebook::yoga::Node *>>::_Vector_impl_data" }
%"struct.std::_Vector_base<facebook::yoga::Node *, std::allocator<facebook::yoga::Node *>>::_Vector_impl_data" = type { ptr, ptr, ptr }
%"struct.std::array.8" = type { [2 x %"class.facebook::yoga::StyleSizeLength"] }
%"class.facebook::yoga::StyleSizeLength" = type <{ %"struct.facebook::yoga::FloatOptional", i8, [3 x i8] }>

@.str = private unnamed_addr constant [54 x i8] c"Cannot get layout properties of multi-edge shorthands\00", align 1

; Function Attrs: mustprogress nounwind uwtable
define linkonce_odr hidden noundef zeroext i8 @_ZNK8facebook4yoga13LayoutResults9directionEv(ptr noundef nonnull align 4 dereferenceable(324) %0) #2 comdat align 2 {
  %2 = alloca ptr, align 8
  store ptr %0, ptr %2, align 8, !tbaa !11
  %3 = load ptr, ptr %2, align 8
  %4 = getelementptr inbounds nuw %"struct.facebook::yoga::LayoutResults", ptr %3, i32 0, i32 8
  %5 = load i8, ptr %4, align 4
  %6 = and i8 %5, 3
  ret i8 %6
}

; Function Attrs: mustprogress nounwind uwtable
define linkonce_odr noundef nonnull align 4 dereferenceable(324) ptr @_ZNK8facebook4yoga4Node9getLayoutEv(ptr noundef nonnull align 8 dereferenceable(584) %0) #2 comdat align 2 {
  %2 = alloca ptr, align 8
  store ptr %0, ptr %2, align 8, !tbaa !9
  %3 = load ptr, ptr %2, align 8
  %4 = getelementptr inbounds nuw %"class.facebook::yoga::Node", ptr %3, i32 0, i32 6
  ret ptr %4
}

; Function Attrs: inlinehint mustprogress nounwind uwtable
define linkonce_odr hidden noundef ptr @_ZN8facebook4yoga10resolveRefEPK6YGNode(ptr noundef %0) #1 comdat {
  %2 = alloca ptr, align 8
  store ptr %0, ptr %2, align 8, !tbaa !4
  %3 = load ptr, ptr %2, align 8, !tbaa !4
  ret ptr %3
}

; Function Attrs: mustprogress uwtable
define internal noundef float @_ZN12_GLOBAL__N_125getResolvedLayoutPropertyITnDaXadL_ZNK8facebook4yoga13LayoutResults6borderENS2_12PhysicalEdgeEEEEEfPK6YGNodeNS2_4EdgeE(ptr noundef %0, i8 noundef zeroext %1) #0 {
  %3 = alloca float, align 4
  %4 = alloca ptr, align 8
  %5 = alloca i8, align 1
  %6 = alloca ptr, align 8
  %7 = alloca i32, align 4
  store ptr %0, ptr %4, align 8, !tbaa !4
  store i8 %1, ptr %5, align 1, !tbaa !23
  call void @llvm.lifetime.start.p0(i64 8, ptr %6) #5
  %8 = load ptr, ptr %4, align 8, !tbaa !4
  %9 = call noundef ptr @_ZN8facebook4yoga10resolveRefEPK6YGNode(ptr noundef %8)
  store ptr %9, ptr %6, align 8, !tbaa !9
  %10 = load ptr, ptr %6, align 8, !tbaa !9
  %11 = load i8, ptr %5, align 1, !tbaa !23
  %12 = icmp ule i8 %11, 5
  call void @_ZN8facebook4yoga19assertFatalWithNodeEPKNS0_4NodeEbPKc(ptr noundef %10, i1 noundef zeroext %12, ptr noundef @.str)
  %13 = load i8, ptr %5, align 1, !tbaa !23
  %14 = icmp eq i8 %13, 4
  br i1 %14, label %15, label %44

15:                                               ; preds = %2
  %16 = load ptr, ptr %6, align 8, !tbaa !9
  %17 = call noundef nonnull align 4 dereferenceable(324) ptr @_ZNK8facebook4yoga4Node9getLayoutEv(ptr noundef nonnull align 8 dereferenceable(584) %16)
  %18 = call noundef zeroext i8 @_ZNK8facebook4yoga13LayoutResults9directionEv(ptr noundef nonnull align 4 dereferenceable(324) %17)
  %19 = icmp eq i8 %18, 2
  br i1 %19, label %20, label %32

20:                                               ; preds = %15
  %21 = load ptr, ptr %6, align 8, !tbaa !9
  %22 = call noundef nonnull align 4 dereferenceable(324) ptr @_ZNK8facebook4yoga4Node9getLayoutEv(ptr noundef nonnull align 8 dereferenceable(584) %21)
  %23 = getelementptr inbounds i8, ptr %22, i64 0
  br i1 false, label %24, label %28

24:                                               ; preds = %20
  %25 = load ptr, ptr %23, align 8, !tbaa !25
  %26 = getelementptr i8, ptr %25, i64 sub (i64 ptrtoint (ptr @_ZNK8facebook4yoga13LayoutResults6borderENS0_12PhysicalEdgeE to i64), i64 1), !nosanitize !27
  %27 = load ptr, ptr %26, align 8, !nosanitize !27
  br label %29

28:                                               ; preds = %20
  br label %29

29:                                               ; preds = %28, %24
  %30 = phi ptr [ %27, %24 ], [ @_ZNK8facebook4yoga13LayoutResults6borderENS0_12PhysicalEdgeE, %28 ]
  %31 = call noundef float %30(ptr noundef nonnull align 4 dereferenceable(324) %23, i32 noundef 2)
  store float %31, ptr %3, align 4
  store i32 1, ptr %7, align 4
  br label %90

32:                                               ; preds = %15
  %33 = load ptr, ptr %6, align 8, !tbaa !9
  %34 = call noundef nonnull align 4 dereferenceable(324) ptr @_ZNK8facebook4yoga4Node9getLayoutEv(ptr noundef nonnull align 8 dereferenceable(584) %33)
  %35 = getelementptr inbounds i8, ptr %34, i64 0
  br i1 false, label %36, label %40

36:                                               ; preds = %32
  %37 = load ptr, ptr %35, align 8, !tbaa !25
  %38 = getelementptr i8, ptr %37, i64 sub (i64 ptrtoint (ptr @_ZNK8facebook4yoga13LayoutResults6borderENS0_12PhysicalEdgeE to i64), i64 1), !nosanitize !27
  %39 = load ptr, ptr %38, align 8, !nosanitize !27
  br label %41

40:                                               ; preds = %32
  br label %41

41:                                               ; preds = %40, %36
  %42 = phi ptr [ %39, %36 ], [ @_ZNK8facebook4yoga13LayoutResults6borderENS0_12PhysicalEdgeE, %40 ]
  %43 = call noundef float %42(ptr noundef nonnull align 4 dereferenceable(324) %35, i32 noundef 0)
  store float %43, ptr %3, align 4
  store i32 1, ptr %7, align 4
  br label %90

44:                                               ; preds = %2
  %45 = load i8, ptr %5, align 1, !tbaa !23
  %46 = icmp eq i8 %45, 5
  br i1 %46, label %47, label %76

47:                                               ; preds = %44
  %48 = load ptr, ptr %6, align 8, !tbaa !9
  %49 = call noundef nonnull align 4 dereferenceable(324) ptr @_ZNK8facebook4yoga4Node9getLayoutEv(ptr noundef nonnull align 8 dereferenceable(584) %48)
  %50 = call noundef zeroext i8 @_ZNK8facebook4yoga13LayoutResults9directionEv(ptr noundef nonnull align 4 dereferenceable(324) %49)
  %51 = icmp eq i8 %50, 2
  br i1 %51, label %52, label %64

52:                                               ; preds = %47
  %53 = load ptr, ptr %6, align 8, !tbaa !9
  %54 = call noundef nonnull align 4 dereferenceable(324) ptr @_ZNK8facebook4yoga4Node9getLayoutEv(ptr noundef nonnull align 8 dereferenceable(584) %53)
  %55 = getelementptr inbounds i8, ptr %54, i64 0
  br i1 false, label %56, label %60

56:                                               ; preds = %52
  %57 = load ptr, ptr %55, align 8, !tbaa !25
  %58 = getelementptr i8, ptr %57, i64 sub (i64 ptrtoint (ptr @_ZNK8facebook4yoga13LayoutResults6borderENS0_12PhysicalEdgeE to i64), i64 1), !nosanitize !27
  %59 = load ptr, ptr %58, align 8, !nosanitize !27
  br label %61

60:                                               ; preds = %52
  br label %61

61:                                               ; preds = %60, %56
  %62 = phi ptr [ %59, %56 ], [ @_ZNK8facebook4yoga13LayoutResults6borderENS0_12PhysicalEdgeE, %60 ]
  %63 = call noundef float %62(ptr noundef nonnull align 4 dereferenceable(324) %55, i32 noundef 0)
  store float %63, ptr %3, align 4
  store i32 1, ptr %7, align 4
  br label %90

64:                                               ; preds = %47
  %65 = load ptr, ptr %6, align 8, !tbaa !9
  %66 = call noundef nonnull align 4 dereferenceable(324) ptr @_ZNK8facebook4yoga4Node9getLayoutEv(ptr noundef nonnull align 8 dereferenceable(584) %65)
  %67 = getelementptr inbounds i8, ptr %66, i64 0
  br i1 false, label %68, label %72

68:                                               ; preds = %64
  %69 = load ptr, ptr %67, align 8, !tbaa !25
  %70 = getelementptr i8, ptr %69, i64 sub (i64 ptrtoint (ptr @_ZNK8facebook4yoga13LayoutResults6borderENS0_12PhysicalEdgeE to i64), i64 1), !nosanitize !27
  %71 = load ptr, ptr %70, align 8, !nosanitize !27
  br label %73

72:                                               ; preds = %64
  br label %73

73:                                               ; preds = %72, %68
  %74 = phi ptr [ %71, %68 ], [ @_ZNK8facebook4yoga13LayoutResults6borderENS0_12PhysicalEdgeE, %72 ]
  %75 = call noundef float %74(ptr noundef nonnull align 4 dereferenceable(324) %67, i32 noundef 2)
  store float %75, ptr %3, align 4
  store i32 1, ptr %7, align 4
  br label %90

76:                                               ; preds = %44
  %77 = load ptr, ptr %6, align 8, !tbaa !9
  %78 = call noundef nonnull align 4 dereferenceable(324) ptr @_ZNK8facebook4yoga4Node9getLayoutEv(ptr noundef nonnull align 8 dereferenceable(584) %77)
  %79 = getelementptr inbounds i8, ptr %78, i64 0
  br i1 false, label %80, label %84

80:                                               ; preds = %76
  %81 = load ptr, ptr %79, align 8, !tbaa !25
  %82 = getelementptr i8, ptr %81, i64 sub (i64 ptrtoint (ptr @_ZNK8facebook4yoga13LayoutResults6borderENS0_12PhysicalEdgeE to i64), i64 1), !nosanitize !27
  %83 = load ptr, ptr %82, align 8, !nosanitize !27
  br label %85

84:                                               ; preds = %76
  br label %85

85:                                               ; preds = %84, %80
  %86 = phi ptr [ %83, %80 ], [ @_ZNK8facebook4yoga13LayoutResults6borderENS0_12PhysicalEdgeE, %84 ]
  %87 = load i8, ptr %5, align 1, !tbaa !23
  %88 = zext i8 %87 to i32
  %89 = call noundef float %86(ptr noundef nonnull align 4 dereferenceable(324) %79, i32 noundef %88)
  store float %89, ptr %3, align 4
  store i32 1, ptr %7, align 4
  br label %90

90:                                               ; preds = %85, %73, %61, %41, %29
  call void @llvm.lifetime.end.p0(i64 8, ptr %6) #5
  %91 = load float, ptr %3, align 4
  ret float %91
}

; Function Attrs: mustprogress nounwind uwtable
define linkonce_odr hidden noundef zeroext i8 @_ZN8facebook4yoga10scopedEnumE6YGEdge(i32 noundef %0) #2 comdat {
  %2 = alloca i32, align 4
  store i32 %0, ptr %2, align 4, !tbaa !21
  %3 = load i32, ptr %2, align 4, !tbaa !21
  %4 = trunc i32 %3 to i8
  ret i8 %4
}

; Function Attrs: mustprogress uwtable
define float @YGNodeLayoutGetBorder(ptr noundef %0, i32 noundef %1) #0 {
  %3 = alloca ptr, align 8
  %4 = alloca i32, align 4
  store ptr %0, ptr %3, align 8, !tbaa !4
  store i32 %1, ptr %4, align 4, !tbaa !21
  %5 = load ptr, ptr %3, align 8, !tbaa !4
  %6 = load i32, ptr %4, align 4, !tbaa !21
  %7 = call noundef zeroext i8 @_ZN8facebook4yoga10scopedEnumE6YGEdge(i32 noundef %6)
  %8 = call noundef float @_ZN12_GLOBAL__N_125getResolvedLayoutPropertyITnDaXadL_ZNK8facebook4yoga13LayoutResults6borderENS2_12PhysicalEdgeEEEEEfPK6YGNodeNS2_4EdgeE(ptr noundef %5, i8 noundef zeroext %7)
  ret float %8
}