; Function Attrs: mustprogress uwtable
define float @YGNodeLayoutGetBorder(ptr noundef %0, i32 noundef %1) local_unnamed_addr #1 {
  %3 = trunc i32 %1 to i8
  %4 = icmp ult i8 %3, 6
  tail call void @_ZN8facebook4yoga19assertFatalWithNodeEPKNS0_4NodeEbPKc(ptr noundef %0, i1 noundef zeroext %4, ptr noundef nonnull @.str)
  switch i8 %3, label %23 [
    i8 4, label %5
    i8 5, label %14
  ]

5:                                                ; preds = %2
  %6 = getelementptr inbounds nuw i8, ptr %0, i64 424
  %7 = load i8, ptr %6, align 4
  %8 = and i8 %7, 3
  %9 = icmp eq i8 %8, 2
  br i1 %9, label %10, label %12

10:                                               ; preds = %5
  %11 = getelementptr inbounds nuw i8, ptr %0, i64 484
  br label %_ZN12_GLOBAL__N_125getResolvedLayoutPropertyITnDaXadL_ZNK8facebook4yoga13LayoutResults6borderENS2_12PhysicalEdgeEEEEEfPK6YGNodeNS2_4EdgeE.exit

12:                                               ; preds = %5
  %13 = getelementptr inbounds nuw i8, ptr %0, i64 476
  br label %_ZN12_GLOBAL__N_125getResolvedLayoutPropertyITnDaXadL_ZNK8facebook4yoga13LayoutResults6borderENS2_12PhysicalEdgeEEEEEfPK6YGNodeNS2_4EdgeE.exit

14:                                               ; preds = %2
  %15 = getelementptr inbounds nuw i8, ptr %0, i64 424
  %16 = load i8, ptr %15, align 4
  %17 = and i8 %16, 3
  %18 = icmp eq i8 %17, 2
  br i1 %18, label %19, label %21

19:                                               ; preds = %14
  %20 = getelementptr inbounds nuw i8, ptr %0, i64 476
  br label %_ZN12_GLOBAL__N_125getResolvedLayoutPropertyITnDaXadL_ZNK8facebook4yoga13LayoutResults6borderENS2_12PhysicalEdgeEEEEEfPK6YGNodeNS2_4EdgeE.exit

21:                                               ; preds = %14
  %22 = getelementptr inbounds nuw i8, ptr %0, i64 484
  br label %_ZN12_GLOBAL__N_125getResolvedLayoutPropertyITnDaXadL_ZNK8facebook4yoga13LayoutResults6borderENS2_12PhysicalEdgeEEEEEfPK6YGNodeNS2_4EdgeE.exit

23:                                               ; preds = %2
  %24 = getelementptr inbounds nuw i8, ptr %0, i64 476
  %.mask = and i32 %1, 255
  %25 = zext nneg i32 %.mask to i64
  %26 = getelementptr inbounds nuw [4 x float], ptr %24, i64 0, i64 %25
  br label %_ZN12_GLOBAL__N_125getResolvedLayoutPropertyITnDaXadL_ZNK8facebook4yoga13LayoutResults6borderENS2_12PhysicalEdgeEEEEEfPK6YGNodeNS2_4EdgeE.exit

_ZN12_GLOBAL__N_125getResolvedLayoutPropertyITnDaXadL_ZNK8facebook4yoga13LayoutResults6borderENS2_12PhysicalEdgeEEEEEfPK6YGNodeNS2_4EdgeE.exit: ; preds = %10, %12, %19, %21, %23
  %.0.in.i = phi ptr [ %11, %10 ], [ %13, %12 ], [ %20, %19 ], [ %22, %21 ], [ %26, %23 ]
  %.0.i = load float, ptr %.0.in.i, align 4, !tbaa !4
  ret float %.0.i
}